target datalayout = "e-m:e-p270:32:32-p271:32:32-p272:64:64-i64:64-i128:128-f80:128-n8:16:32:64-S128"
target triple = "x86_64-pc-linux-gnu"

%struct.ssl_ctx_st = type { ptr, %union.crypto_mutex_st, i16, i16, ptr, ptr, ptr, ptr, ptr, ptr, i64, ptr, ptr, i32, i32, i64, ptr, ptr, ptr, i32, ptr, ptr, ptr, ptr, ptr, ptr, %struct.crypto_ex_data_st, ptr, ptr, ptr, ptr, i32, i32, i32, ptr, ptr, ptr, i32, i32, [32 x i8], ptr, ptr, ptr, ptr, i16, ptr, ptr, [16 x i8], [16 x i8], [16 x i8], ptr, ptr, ptr, ptr, i8, ptr, ptr, ptr, ptr, ptr, ptr, ptr, i32, ptr, i64, ptr, ptr, ptr, i64, ptr, i64, ptr, ptr, i8, ptr, i32 }
%union.crypto_mutex_st = type { double, [48 x i8] }
%struct.crypto_ex_data_st = type { ptr }
%struct.ssl_cipher_preference_list_st = type { ptr, ptr }
%struct.ssl_st = type { i32, i16, i16, ptr, ptr, ptr, ptr, ptr, i32, i32, ptr, ptr, i32, i32, ptr, ptr, ptr, ptr, ptr, ptr, ptr, ptr, i32, i32, [32 x i8], ptr, ptr, ptr, ptr, ptr, ptr, ptr, i64, %struct.crypto_ex_data_st, ptr, i32, i32, i32, i32, i16, ptr, i32, i64, ptr, ptr, ptr, ptr, ptr, ptr, i32, i32, ptr, ptr, i8, i8, i32 }

; Function Attrs: nounwind uwtable
define hidden ptr @SSL_get_ciphers(ptr noundef %0) #0 {
  %2 = alloca ptr, align 8
  %3 = alloca ptr, align 8
  store ptr %0, ptr %3, align 8, !tbaa !80
  %4 = load ptr, ptr %3, align 8, !tbaa !80
  %5 = icmp eq ptr %4, null
  br i1 %5, label %6, label %7

6:                                                ; preds = %1
  store ptr null, ptr %2, align 8
  br label %74

7:                                                ; preds = %1
  %8 = load ptr, ptr %3, align 8, !tbaa !80
  %9 = getelementptr inbounds nuw %struct.ssl_st, ptr %8, i32 0, i32 19
  %10 = load ptr, ptr %9, align 8, !tbaa !131
  %11 = icmp ne ptr %10, null
  br i1 %11, label %12, label %18

12:                                               ; preds = %7
  %13 = load ptr, ptr %3, align 8, !tbaa !80
  %14 = getelementptr inbounds nuw %struct.ssl_st, ptr %13, i32 0, i32 19
  %15 = load ptr, ptr %14, align 8, !tbaa !131
  %16 = getelementptr inbounds nuw %struct.ssl_cipher_preference_list_st, ptr %15, i32 0, i32 0
  %17 = load ptr, ptr %16, align 8, !tbaa !47
  store ptr %17, ptr %2, align 8
  br label %74

18:                                               ; preds = %7
  %19 = load ptr, ptr %3, align 8, !tbaa !80
  %20 = getelementptr inbounds nuw %struct.ssl_st, ptr %19, i32 0, i32 0
  %21 = load i32, ptr %20, align 8, !tbaa !178
  %22 = icmp sge i32 %21, 770
  br i1 %22, label %23, label %38

23:                                               ; preds = %18
  %24 = load ptr, ptr %3, align 8, !tbaa !80
  %25 = getelementptr inbounds nuw %struct.ssl_st, ptr %24, i32 0, i32 31
  %26 = load ptr, ptr %25, align 8, !tbaa !108
  %27 = getelementptr inbounds nuw %struct.ssl_ctx_st, ptr %26, i32 0, i32 7
  %28 = load ptr, ptr %27, align 8, !tbaa !68
  %29 = icmp ne ptr %28, null
  br i1 %29, label %30, label %38

30:                                               ; preds = %23
  %31 = load ptr, ptr %3, align 8, !tbaa !80
  %32 = getelementptr inbounds nuw %struct.ssl_st, ptr %31, i32 0, i32 31
  %33 = load ptr, ptr %32, align 8, !tbaa !108
  %34 = getelementptr inbounds nuw %struct.ssl_ctx_st, ptr %33, i32 0, i32 7
  %35 = load ptr, ptr %34, align 8, !tbaa !68
  %36 = getelementptr inbounds nuw %struct.ssl_cipher_preference_list_st, ptr %35, i32 0, i32 0
  %37 = load ptr, ptr %36, align 8, !tbaa !47
  store ptr %37, ptr %2, align 8
  br label %74

38:                                               ; preds = %23, %18
  %39 = load ptr, ptr %3, align 8, !tbaa !80
  %40 = getelementptr inbounds nuw %struct.ssl_st, ptr %39, i32 0, i32 0
  %41 = load i32, ptr %40, align 8, !tbaa !178
  %42 = icmp sge i32 %41, 769
  br i1 %42, label %43, label %58

43:                                               ; preds = %38
  %44 = load ptr, ptr %3, align 8, !tbaa !80
  %45 = getelementptr inbounds nuw %struct.ssl_st, ptr %44, i32 0, i32 31
  %46 = load ptr, ptr %45, align 8, !tbaa !108
  %47 = getelementptr inbounds nuw %struct.ssl_ctx_st, ptr %46, i32 0, i32 6
  %48 = load ptr, ptr %47, align 8, !tbaa !67
  %49 = icmp ne ptr %48, null
  br i1 %49, label %50, label %58

50:                                               ; preds = %43
  %51 = load ptr, ptr %3, align 8, !tbaa !80
  %52 = getelementptr inbounds nuw %struct.ssl_st, ptr %51, i32 0, i32 31
  %53 = load ptr, ptr %52, align 8, !tbaa !108
  %54 = getelementptr inbounds nuw %struct.ssl_ctx_st, ptr %53, i32 0, i32 6
  %55 = load ptr, ptr %54, align 8, !tbaa !67
  %56 = getelementptr inbounds nuw %struct.ssl_cipher_preference_list_st, ptr %55, i32 0, i32 0
  %57 = load ptr, ptr %56, align 8, !tbaa !47
  store ptr %57, ptr %2, align 8
  br label %74

58:                                               ; preds = %43, %38
  %59 = load ptr, ptr %3, align 8, !tbaa !80
  %60 = getelementptr inbounds nuw %struct.ssl_st, ptr %59, i32 0, i32 31
  %61 = load ptr, ptr %60, align 8, !tbaa !108
  %62 = getelementptr inbounds nuw %struct.ssl_ctx_st, ptr %61, i32 0, i32 4
  %63 = load ptr, ptr %62, align 8, !tbaa !46
  %64 = icmp ne ptr %63, null
  br i1 %64, label %65, label %73

65:                                               ; preds = %58
  %66 = load ptr, ptr %3, align 8, !tbaa !80
  %67 = getelementptr inbounds nuw %struct.ssl_st, ptr %66, i32 0, i32 31
  %68 = load ptr, ptr %67, align 8, !tbaa !108
  %69 = getelementptr inbounds nuw %struct.ssl_ctx_st, ptr %68, i32 0, i32 4
  %70 = load ptr, ptr %69, align 8, !tbaa !46
  %71 = getelementptr inbounds nuw %struct.ssl_cipher_preference_list_st, ptr %70, i32 0, i32 0
  %72 = load ptr, ptr %71, align 8, !tbaa !47
  store ptr %72, ptr %2, align 8
  br label %74

73:                                               ; preds = %58
  store ptr null, ptr %2, align 8
  br label %74

74:                                               ; preds = %73, %65, %50, %30, %12, %6
  %75 = load ptr, ptr %2, align 8
  ret ptr %75
}