; Function Attrs: mustprogress nofree norecurse nosync nounwind willreturn memory(read, inaccessiblemem: none) uwtable
define hidden ptr @SSL_get_ciphers(ptr noundef readonly captures(address_is_null) %0) local_unnamed_addr #10 {
  %2 = icmp eq ptr %0, null
  br i1 %2, label %23, label %3

3:                                                ; preds = %1
  %4 = getelementptr inbounds nuw i8, ptr %0, i64 120
  %5 = load ptr, ptr %4, align 8, !tbaa !120
  %.not = icmp eq ptr %5, null
  br i1 %.not, label %6, label %.sink.split

6:                                                ; preds = %3
  %7 = load i32, ptr %0, align 8, !tbaa !159
  %8 = icmp sgt i32 %7, 769
  br i1 %8, label %9, label %14

9:                                                ; preds = %6
  %10 = getelementptr inbounds nuw i8, ptr %0, i64 232
  %11 = load ptr, ptr %10, align 8, !tbaa !97
  %12 = getelementptr inbounds nuw i8, ptr %11, i64 96
  %13 = load ptr, ptr %12, align 8, !tbaa !60
  %.not17 = icmp eq ptr %13, null
  br i1 %.not17, label %.thread, label %.sink.split

14:                                               ; preds = %6
  %15 = icmp eq i32 %7, 769
  %.phi.trans.insert = getelementptr inbounds nuw i8, ptr %0, i64 232
  %.pre = load ptr, ptr %.phi.trans.insert, align 8, !tbaa !97
  br i1 %15, label %.thread, label %._crit_edge

.thread:                                          ; preds = %14, %9
  %16 = phi ptr [ %11, %9 ], [ %.pre, %14 ]
  %17 = getelementptr inbounds nuw i8, ptr %16, i64 88
  %18 = load ptr, ptr %17, align 8, !tbaa !59
  %.not18 = icmp eq ptr %18, null
  br i1 %.not18, label %._crit_edge, label %.sink.split

._crit_edge:                                      ; preds = %14, %.thread
  %19 = phi ptr [ %16, %.thread ], [ %.pre, %14 ]
  %20 = getelementptr inbounds nuw i8, ptr %19, i64 72
  %21 = load ptr, ptr %20, align 8, !tbaa !42
  %.not19 = icmp eq ptr %21, null
  br i1 %.not19, label %23, label %.sink.split

.sink.split:                                      ; preds = %._crit_edge, %.thread, %9, %3
  %.sink = phi ptr [ %5, %3 ], [ %13, %9 ], [ %18, %.thread ], [ %21, %._crit_edge ]
  %22 = load ptr, ptr %.sink, align 8, !tbaa !43
  br label %23

23:                                               ; preds = %.sink.split, %._crit_edge, %1
  %.0 = phi ptr [ null, %1 ], [ null, %._crit_edge ], [ %22, %.sink.split ]
  ret ptr %.0
}